; Function Attrs: mustprogress nounwind uwtable
define void @_ZN5arrow2io16RandomAccessFileD2Ev(ptr nocapture noundef nonnull align 8 dereferenceable(24) %this, ptr nocapture noundef readonly %vtt) unnamed_addr #1 align 2 personality ptr @__gxx_personality_v0 {
entry:
  %0 = load ptr, ptr %vtt, align 8
  store ptr %0, ptr %this, align 8
  %1 = getelementptr inbounds i8, ptr %vtt, i64 32
  %2 = load ptr, ptr %1, align 8
  %vbase.offset.ptr = getelementptr i8, ptr %0, i64 -56
  %vbase.offset = load i64, ptr %vbase.offset.ptr, align 8
  %add.ptr = getelementptr inbounds i8, ptr %this, i64 %vbase.offset
  store ptr %2, ptr %add.ptr, align 8
  %3 = getelementptr inbounds i8, ptr %vtt, i64 40
  %4 = load ptr, ptr %3, align 8
  %vtable3 = load ptr, ptr %this, align 8
  %vbase.offset.ptr4 = getelementptr i8, ptr %vtable3, i64 -64
  %vbase.offset5 = load i64, ptr %vbase.offset.ptr4, align 8
  %add.ptr6 = getelementptr inbounds i8, ptr %this, i64 %vbase.offset5
  store ptr %4, ptr %add.ptr6, align 8
  %add.ptr7 = getelementptr inbounds i8, ptr %this, i64 8
  store ptr getelementptr inbounds ({ [23 x ptr], [5 x ptr], [15 x ptr] }, ptr @_ZTVN5arrow2io16RandomAccessFileE, i64 0, i32 1, i64 2), ptr %add.ptr7, align 8
  %interface_impl_ = getelementptr inbounds i8, ptr %this, i64 16
  %5 = load ptr, ptr %interface_impl_, align 8
  %cmp.not.i = icmp eq ptr %5, null
  br i1 %cmp.not.i, label %_ZNSt10unique_ptrIN5arrow2io16RandomAccessFile4ImplESt14default_deleteIS3_EED2Ev.exit, label %_ZNKSt14default_deleteIN5arrow2io16RandomAccessFile4ImplEEclEPS3_.exit.i

_ZNKSt14default_deleteIN5arrow2io16RandomAccessFile4ImplEEclEPS3_.exit.i: ; preds = %entry
  tail call void @_ZdlPv(ptr noundef nonnull %5) #31
  br label %_ZNSt10unique_ptrIN5arrow2io16RandomAccessFile4ImplESt14default_deleteIS3_EED2Ev.exit

_ZNSt10unique_ptrIN5arrow2io16RandomAccessFile4ImplESt14default_deleteIS3_EED2Ev.exit: ; preds = %entry, %_ZNKSt14default_deleteIN5arrow2io16RandomAccessFile4ImplEEclEPS3_.exit.i
  store ptr null, ptr %interface_impl_, align 8
  ret void
}